target datalayout = "e-m:e-p270:32:32-p271:32:32-p272:64:64-i64:64-i128:128-f80:128-n8:16:32:64-S128"
target triple = "x86_64-unknown-linux-gnu"

%class.func_interp = type { ptr, i32, %class.ptr_vector.26, ptr, i8, ptr, ptr }
%class.ptr_vector.26 = type { %class.vector.27 }
%class.vector.27 = type { ptr }

; Function Attrs: mustprogress nounwind uwtable
define linkonce_odr hidden void @_ZN6vectorIP10func_entryLb0EjEC2Ev(ptr noundef nonnull align 8 dereferenceable(8) %this) unnamed_addr #5 comdat align 2 {
entry:
  %this.addr = alloca ptr, align 8
  store ptr %this, ptr %this.addr, align 8
  %this1 = load ptr, ptr %this.addr, align 8
  %m_data = getelementptr inbounds %class.vector.27, ptr %this1, i32 0, i32 0
  store ptr null, ptr %m_data, align 8
  ret void
}

; Function Attrs: mustprogress nounwind uwtable
define linkonce_odr hidden void @_ZN10ptr_vectorI10func_entryEC2Ev(ptr noundef nonnull align 8 dereferenceable(8) %this) unnamed_addr #5 comdat align 2 {
entry:
  %this.addr = alloca ptr, align 8
  store ptr %this, ptr %this.addr, align 8
  %this1 = load ptr, ptr %this.addr, align 8
  %0 = getelementptr inbounds i8, ptr %this1, i64 0
  call void @llvm.memset.p0.i64(ptr align 8 %0, i8 0, i64 8, i1 false)
  call void @_ZN6vectorIP10func_entryLb0EjEC2Ev(ptr noundef nonnull align 8 dereferenceable(8) %this1) #3
  ret void
}

; Function Attrs: mustprogress uwtable
define hidden void @_ZN11func_interpC2ER11ast_managerj(ptr noundef nonnull align 8 dereferenceable(56) %this, ptr noundef nonnull align 8 dereferenceable(976) %m, i32 noundef %arity) unnamed_addr #4 align 2 {
entry:
  %this.addr = alloca ptr, align 8
  %m.addr = alloca ptr, align 8
  %arity.addr = alloca i32, align 4
  store ptr %this, ptr %this.addr, align 8
  store ptr %m, ptr %m.addr, align 8
  store i32 %arity, ptr %arity.addr, align 4
  %this1 = load ptr, ptr %this.addr, align 8
  %m_manager = getelementptr inbounds %class.func_interp, ptr %this1, i32 0, i32 0
  %0 = load ptr, ptr %m.addr, align 8
  store ptr %0, ptr %m_manager, align 8
  %m_arity = getelementptr inbounds %class.func_interp, ptr %this1, i32 0, i32 1
  %1 = load i32, ptr %arity.addr, align 4
  store i32 %1, ptr %m_arity, align 8
  %m_entries = getelementptr inbounds %class.func_interp, ptr %this1, i32 0, i32 2
  call void @_ZN10ptr_vectorI10func_entryEC2Ev(ptr noundef nonnull align 8 dereferenceable(8) %m_entries)
  %m_else = getelementptr inbounds %class.func_interp, ptr %this1, i32 0, i32 3
  store ptr null, ptr %m_else, align 8
  %m_args_are_values = getelementptr inbounds %class.func_interp, ptr %this1, i32 0, i32 4
  store i8 1, ptr %m_args_are_values, align 8
  %m_interp = getelementptr inbounds %class.func_interp, ptr %this1, i32 0, i32 5
  store ptr null, ptr %m_interp, align 8
  %m_array_interp = getelementptr inbounds %class.func_interp, ptr %this1, i32 0, i32 6
  store ptr null, ptr %m_array_interp, align 8
  ret void
}