; Function Attrs: mustprogress nofree norecurse nosync nounwind willreturn memory(argmem: write) uwtable
define hidden void @_ZN11func_interpC2ER11ast_managerj(ptr nocapture noundef nonnull writeonly align 8 dereferenceable(56) %this, ptr noundef nonnull align 8 dereferenceable(976) %m, i32 noundef %arity) unnamed_addr #4 align 2 {
entry:
  store ptr %m, ptr %this, align 8
  %m_arity = getelementptr inbounds i8, ptr %this, i64 8
  store i32 %arity, ptr %m_arity, align 8
  %m_entries = getelementptr inbounds i8, ptr %this, i64 16
  %m_args_are_values = getelementptr inbounds i8, ptr %this, i64 32
  tail call void @llvm.memset.p0.i64(ptr noundef nonnull align 8 dereferenceable(16) %m_entries, i8 0, i64 16, i1 false)
  store i8 1, ptr %m_args_are_values, align 8
  %m_interp = getelementptr inbounds i8, ptr %this, i64 40
  tail call void @llvm.memset.p0.i64(ptr noundef nonnull align 8 dereferenceable(16) %m_interp, i8 0, i64 16, i1 false)
  ret void
}